; Function Attrs: mustprogress nounwind uwtable
define dso_local void @_ZN4llvm9symbolize11JSONPrinter5printERKNS0_7RequestERKNS_10DILineInfoE(ptr noundef nonnull align 8 dereferenceable(32) %0, ptr noundef nonnull align 8 dereferenceable(48) %1, ptr noundef nonnull align 8 dereferenceable(181) %2) unnamed_addr #0 align 2 {
  %4 = alloca %"class.llvm::DIInliningInfo", align 8
  %5 = getelementptr inbounds i8, ptr %4, i64 16
  call void @_ZN4llvm15SmallVectorBaseIjEC2EPvm(ptr noundef nonnull align 8 dereferenceable(16) %4, ptr noundef nonnull %5, i64 noundef 4) #17
  %6 = call noundef ptr @_ZN4llvm25SmallVectorTemplateCommonINS_10DILineInfoEvE32reserveForParamAndGetAddressImplINS_23SmallVectorTemplateBaseIS1_Lb0EEEEEPKS1_PT_RS6_m(ptr noundef nonnull %4, ptr noundef nonnull align 8 dereferenceable(181) %2, i64 noundef 1)
  %7 = load ptr, ptr %4, align 8
  %8 = call noundef i64 @_ZNK4llvm15SmallVectorBaseIjE4sizeEv(ptr noundef nonnull align 8 dereferenceable(16) %4) #17
  %9 = getelementptr inbounds %"struct.llvm::DILineInfo", ptr %7, i64 %8
  call void @_ZNSt7__cxx1112basic_stringIcSt11char_traitsIcESaIcEEC1ERKS4_(ptr noundef nonnull align 8 dereferenceable(32) %9, ptr noundef nonnull align 8 dereferenceable(32) %6) #17
  %10 = getelementptr inbounds nuw i8, ptr %9, i64 32
  %11 = getelementptr inbounds nuw i8, ptr %6, i64 32
  call void @_ZNSt7__cxx1112basic_stringIcSt11char_traitsIcESaIcEEC1ERKS4_(ptr noundef nonnull align 8 dereferenceable(32) %10, ptr noundef nonnull align 8 dereferenceable(32) %11) #17
  %12 = getelementptr inbounds nuw i8, ptr %9, i64 64
  %13 = getelementptr inbounds nuw i8, ptr %6, i64 64
  call void @_ZNSt7__cxx1112basic_stringIcSt11char_traitsIcESaIcEEC1ERKS4_(ptr noundef nonnull align 8 dereferenceable(32) %12, ptr noundef nonnull align 8 dereferenceable(32) %13) #17
  %14 = getelementptr inbounds nuw i8, ptr %9, i64 96
  %15 = getelementptr inbounds nuw i8, ptr %6, i64 96
  call void @llvm.memcpy.p0.p0.i64(ptr noundef nonnull align 8 dereferenceable(85) %14, ptr noundef nonnull align 8 dereferenceable(85) %15, i64 85, i1 false)
  %16 = call noundef i64 @_ZNK4llvm15SmallVectorBaseIjE4sizeEv(ptr noundef nonnull align 8 dereferenceable(16) %4) #17
  %17 = add i64 %16, 1
  call void @_ZN4llvm15SmallVectorBaseIjE8set_sizeEm(ptr noundef nonnull align 8 dereferenceable(16) %4, i64 noundef %17) #17
  %18 = load ptr, ptr %0, align 8
  %19 = getelementptr inbounds i8, ptr %18, i64 24
  %20 = load ptr, ptr %19, align 8
  call void %20(ptr noundef nonnull align 8 dereferenceable(32) %0, ptr noundef nonnull align 8 dereferenceable(48) %1, ptr noundef nonnull align 8 dereferenceable(752) %4) #17
  %21 = load ptr, ptr %4, align 8
  %22 = call noundef i64 @_ZNK4llvm15SmallVectorBaseIjE4sizeEv(ptr noundef nonnull align 8 dereferenceable(16) %4) #17
  %.not4.i.i.i = icmp eq i64 %22, 0
  br i1 %.not4.i.i.i, label %_ZN4llvm23SmallVectorTemplateBaseINS_10DILineInfoELb0EE13destroy_rangeEPS1_S3_.exit.i.i, label %.lr.ph.i.preheader.i.i

.lr.ph.i.preheader.i.i:                           ; preds = %3
  %23 = getelementptr inbounds %"struct.llvm::DILineInfo", ptr %21, i64 %22
  br label %.lr.ph.i.i.i

.lr.ph.i.i.i:                                     ; preds = %.lr.ph.i.i.i, %.lr.ph.i.preheader.i.i
  %.05.i.i.i = phi ptr [ %24, %.lr.ph.i.i.i ], [ %23, %.lr.ph.i.preheader.i.i ]
  %24 = getelementptr inbounds i8, ptr %.05.i.i.i, i64 -184
  %25 = getelementptr inbounds i8, ptr %.05.i.i.i, i64 -120
  call void @_ZNSt7__cxx1112basic_stringIcSt11char_traitsIcESaIcEED1Ev(ptr noundef nonnull align 8 dereferenceable(32) %25) #17
  %26 = getelementptr inbounds i8, ptr %.05.i.i.i, i64 -152
  call void @_ZNSt7__cxx1112basic_stringIcSt11char_traitsIcESaIcEED1Ev(ptr noundef nonnull align 8 dereferenceable(32) %26) #17
  call void @_ZNSt7__cxx1112basic_stringIcSt11char_traitsIcESaIcEED1Ev(ptr noundef nonnull align 8 dereferenceable(32) %24) #17
  %.not.i.i.i = icmp eq ptr %21, %24
  br i1 %.not.i.i.i, label %_ZN4llvm23SmallVectorTemplateBaseINS_10DILineInfoELb0EE13destroy_rangeEPS1_S3_.exit.i.i, label %.lr.ph.i.i.i, !llvm.loop !17

_ZN4llvm23SmallVectorTemplateBaseINS_10DILineInfoELb0EE13destroy_rangeEPS1_S3_.exit.i.i: ; preds = %.lr.ph.i.i.i, %3
  %27 = load ptr, ptr %4, align 8
  %28 = icmp eq ptr %27, %5
  br i1 %28, label %_ZN4llvm14DIInliningInfoD2Ev.exit, label %29

29:                                               ; preds = %_ZN4llvm23SmallVectorTemplateBaseINS_10DILineInfoELb0EE13destroy_rangeEPS1_S3_.exit.i.i
  call void @free(ptr noundef %27) #17
  br label %_ZN4llvm14DIInliningInfoD2Ev.exit

_ZN4llvm14DIInliningInfoD2Ev.exit:                ; preds = %_ZN4llvm23SmallVectorTemplateBaseINS_10DILineInfoELb0EE13destroy_rangeEPS1_S3_.exit.i.i, %29
  ret void
}